; Function Attrs: mustprogress nounwind uwtable
define void @_ZN5boost4urls18params_encoded_ref5unsetENS0_19params_encoded_base8iteratorE(ptr dead_on_unwind noalias nocapture writable writeonly sret(%"class.boost::urls::params_encoded_base::iterator") align 8 %0, ptr nocapture noundef nonnull readonly align 8 dereferenceable(56) %1, ptr noundef byval(%"class.boost::urls::params_encoded_base::iterator") align 8 %2) local_unnamed_addr #3 align 2 personality ptr @__gxx_personality_v0 {
  %4 = alloca %"struct.boost::urls::detail::params_iter_impl", align 8
  %5 = alloca %"struct.boost::urls::detail::params_iter_impl", align 8
  %6 = alloca %"struct.boost::urls::detail::param_encoded_value_iter", align 8
  call void @llvm.lifetime.start.p0(i64 104, ptr nonnull %4) #12
  %7 = getelementptr inbounds nuw i8, ptr %1, i64 48
  %8 = load ptr, ptr %7, align 8, !tbaa !3
  call void @llvm.lifetime.start.p0(i64 104, ptr nonnull %5) #12
  call void @llvm.memcpy.p0.p0.i64(ptr noundef nonnull align 8 dereferenceable(104) %5, ptr noundef nonnull align 8 dereferenceable(104) %2, i64 104, i1 false)
  call void @_ZN5boost4urls6detail16params_iter_impl9incrementEv(ptr noundef nonnull align 8 dereferenceable(104) %5) #12
  call void @llvm.lifetime.start.p0(i64 64, ptr nonnull %6) #12
  %9 = getelementptr inbounds nuw i8, ptr %2, i64 72
  %10 = load i64, ptr %9, align 8, !tbaa !76
  %11 = add i64 %10, -1
  %12 = getelementptr inbounds nuw i8, ptr %6, i64 8
  call void @llvm.memset.p0.i64(ptr noundef nonnull align 8 dereferenceable(33) %12, i8 0, i64 33, i1 false)
  store ptr getelementptr inbounds inrange(-16, 40) (i8, ptr @_ZTVN5boost4urls6detail24param_encoded_value_iterE, i64 16), ptr %6, align 8, !tbaa !20
  %13 = getelementptr inbounds nuw i8, ptr %6, i64 48
  store i64 %11, ptr %13, align 8, !tbaa !78
  %14 = getelementptr inbounds nuw i8, ptr %6, i64 56
  store i8 0, ptr %14, align 8, !tbaa !80
  %15 = getelementptr inbounds nuw i8, ptr %6, i64 57
  store i8 0, ptr %15, align 1, !tbaa !81
  invoke void @_ZN5boost4urls8url_base11edit_paramsERKNS0_6detail16params_iter_implES5_ONS2_15any_params_iterE(ptr dead_on_unwind nonnull writable sret(%"struct.boost::urls::detail::params_iter_impl") align 8 %4, ptr noundef nonnull align 8 dereferenceable(216) %8, ptr noundef nonnull align 8 dereferenceable(104) %2, ptr noundef nonnull align 8 dereferenceable(104) %5, ptr noundef nonnull align 8 dereferenceable(41) %6)
          to label %16 unwind label %17

16:                                               ; preds = %3
  call void @llvm.memcpy.p0.p0.i64(ptr noundef nonnull align 8 dereferenceable(104) %0, ptr noundef nonnull align 8 dereferenceable(104) %4, i64 104, i1 false)
  call void @_ZN5boost4urls6detail15any_params_iterD2Ev(ptr noundef nonnull align 8 dereferenceable(58) %6) #12
  call void @llvm.lifetime.end.p0(i64 64, ptr nonnull %6) #12
  call void @llvm.lifetime.end.p0(i64 104, ptr nonnull %5) #12
  call void @llvm.lifetime.end.p0(i64 104, ptr nonnull %4) #12
  ret void

17:                                               ; preds = %3
  %18 = landingpad { ptr, i32 }
          catch ptr null
  %19 = extractvalue { ptr, i32 } %18, 0
  call void @__clang_call_terminate(ptr %19) #13
  unreachable
}